; Function Attrs: mustprogress uwtable
define noundef zeroext i1 @_ZNK3g2o15VertexSegment2D5writeERSo(ptr nocapture noundef nonnull readonly align 16 dereferenceable(232) %0, ptr noundef nonnull align 8 dereferenceable(8) %1) unnamed_addr #3 align 2 personality ptr @__gxx_personality_v0 {
  %3 = getelementptr inbounds nuw i8, ptr %0, i64 176
  br label %4

4:                                                ; preds = %4, %2
  %indvars.iv.i = phi i64 [ 0, %2 ], [ %indvars.iv.next.i, %4 ]
  %5 = getelementptr inbounds double, ptr %3, i64 %indvars.iv.i
  %6 = load double, ptr %5, align 8
  %7 = tail call noundef nonnull align 8 dereferenceable(8) ptr @_ZNSolsEd(ptr noundef nonnull align 8 dereferenceable(8) %1, double noundef %6)
  %8 = tail call noundef nonnull align 8 dereferenceable(8) ptr @_ZStlsISt11char_traitsIcEERSt13basic_ostreamIcT_ES5_PKc(ptr noundef nonnull align 8 dereferenceable(8) %7, ptr noundef nonnull @.str)
  %indvars.iv.next.i = add nuw nsw i64 %indvars.iv.i, 1
  %exitcond.not.i = icmp eq i64 %indvars.iv.next.i, 4
  br i1 %exitcond.not.i, label %_ZN3g2o8internal11writeVectorIN5Eigen6MatrixIdLi4ELi1ELi0ELi4ELi1EEEEEbRSoRKNS2_9DenseBaseIT_EE.exit, label %4, !llvm.loop !6

_ZN3g2o8internal11writeVectorIN5Eigen6MatrixIdLi4ELi1ELi0ELi4ELi1EEEEEbRSoRKNS2_9DenseBaseIT_EE.exit: ; preds = %4
  %9 = load ptr, ptr %1, align 8
  %10 = getelementptr i8, ptr %9, i64 -24
  %11 = load i64, ptr %10, align 8
  %12 = getelementptr inbounds i8, ptr %1, i64 %11
  %13 = tail call noundef zeroext i1 @_ZNKSt9basic_iosIcSt11char_traitsIcEE4goodEv(ptr noundef nonnull align 8 dereferenceable(264) %12)
  ret i1 %13
}